; Function Attrs: nounwind sspstrong uwtable
define dso_local void @rb_native_mutex_initialize(ptr noundef %0) local_unnamed_addr #0 {
  %2 = tail call i32 @pthread_mutex_init(ptr noundef %0, ptr noundef null) #17
  %.not = icmp eq i32 %2, 0
  br i1 %.not, label %4, label %3

3:                                                ; preds = %1
  tail call void @rb_bug_errno(ptr noundef nonnull @.str.7, i32 noundef %2) #38
  unreachable

4:                                                ; preds = %1
  ret void
}